; Function Attrs: mustprogress ssp uwtable
define noundef nonnull align 8 dereferenceable(8) ptr @_ZN6open3d7utility7CPUInfo11GetInstanceEv() local_unnamed_addr #0 align 2 personality ptr @__gxx_personality_v0 {
  %1 = load atomic i8, ptr @_ZGVZN6open3d7utility7CPUInfo11GetInstanceEvE8instance acquire, align 8
  %2 = icmp eq i8 %1, 0
  br i1 %2, label %3, label %8, !prof !74

3:                                                ; preds = %0
  %4 = tail call i32 @__cxa_guard_acquire(ptr nonnull @_ZGVZN6open3d7utility7CPUInfo11GetInstanceEvE8instance) #31
  %.not = icmp eq i32 %4, 0
  br i1 %.not, label %8, label %5

5:                                                ; preds = %3
  invoke void @_ZN6open3d7utility7CPUInfoC1Ev(ptr noundef nonnull align 8 dereferenceable(8) @_ZZN6open3d7utility7CPUInfo11GetInstanceEvE8instance)
          to label %6 unwind label %9

6:                                                ; preds = %5
  %7 = tail call i32 @__cxa_atexit(ptr nonnull @_ZN6open3d7utility7CPUInfoD2Ev, ptr nonnull @_ZZN6open3d7utility7CPUInfo11GetInstanceEvE8instance, ptr nonnull @__dso_handle) #31
  tail call void @__cxa_guard_release(ptr nonnull @_ZGVZN6open3d7utility7CPUInfo11GetInstanceEvE8instance) #31
  br label %8

8:                                                ; preds = %6, %3, %0
  ret ptr @_ZZN6open3d7utility7CPUInfo11GetInstanceEvE8instance

9:                                                ; preds = %5
  %10 = landingpad { ptr, i32 }
          cleanup
  tail call void @__cxa_guard_abort(ptr nonnull @_ZGVZN6open3d7utility7CPUInfo11GetInstanceEvE8instance) #31
  resume { ptr, i32 } %10
}